; Function Attrs: mustprogress nounwind uwtable
define void @_ZN3gmx20LocalTopologyCheckerD2Ev(ptr noundef nonnull align 8 captures(none) dereferenceable(8) %0) unnamed_addr #6 align 2 personality ptr @__gxx_personality_v0 {
  %2 = load ptr, ptr %0, align 8, !tbaa !29
  %.not.i = icmp eq ptr %2, null
  br i1 %.not.i, label %_ZNSt10unique_ptrIN3gmx20LocalTopologyChecker4ImplESt14default_deleteIS2_EED2Ev.exit, label %3

3:                                                ; preds = %1
  %4 = getelementptr inbounds nuw i8, ptr %2, i64 72
  %5 = load ptr, ptr %4, align 8, !tbaa !25
  %.not.i.i.i.i = icmp eq ptr %5, null
  br i1 %.not.i.i.i.i, label %_ZNKSt14default_deleteIN3gmx20LocalTopologyChecker4ImplEEclEPS2_.exit.i, label %6

6:                                                ; preds = %3
  %7 = getelementptr inbounds nuw i8, ptr %2, i64 56
  %8 = invoke noundef zeroext i1 %5(ptr noundef nonnull align 8 dereferenceable(32) %7, ptr noundef nonnull align 8 dereferenceable(32) %7, i32 noundef 3)
          to label %_ZNKSt14default_deleteIN3gmx20LocalTopologyChecker4ImplEEclEPS2_.exit.i unwind label %9

9:                                                ; preds = %6
  %10 = landingpad { ptr, i32 }
          catch ptr null
  %11 = extractvalue { ptr, i32 } %10, 0
  tail call void @__clang_call_terminate(ptr %11) #17
  unreachable

_ZNKSt14default_deleteIN3gmx20LocalTopologyChecker4ImplEEclEPS2_.exit.i: ; preds = %6, %3
  tail call void @_ZdlPvm(ptr noundef nonnull %2, i64 noundef 96) #20
  br label %_ZNSt10unique_ptrIN3gmx20LocalTopologyChecker4ImplESt14default_deleteIS2_EED2Ev.exit

_ZNSt10unique_ptrIN3gmx20LocalTopologyChecker4ImplESt14default_deleteIS2_EED2Ev.exit: ; preds = %1, %_ZNKSt14default_deleteIN3gmx20LocalTopologyChecker4ImplEEclEPS2_.exit.i
  store ptr null, ptr %0, align 8, !tbaa !29
  ret void
}